target datalayout = "e-m:e-p270:32:32-p271:32:32-p272:64:64-i64:64-i128:128-f80:128-n8:16:32:64-S128"
target triple = "x86_64-pc-linux-gnu"

%struct._object = type { %union.anon, ptr }
%union.anon = type { i64 }
%struct.PyVarObject = type { %struct._object, i64 }
%struct.array_state = type { ptr, ptr, ptr, ptr, ptr, ptr, ptr }
%struct.arraydescr = type { i8, i32, ptr, ptr, ptr, ptr, i32, i32 }
%struct.anon = type { i32, i32 }
%struct.PyModuleObject = type { %struct._object, ptr, ptr, ptr, ptr, ptr }
%struct.arrayobject = type { %struct.PyVarObject, ptr, i64, ptr, ptr, i64 }
%struct.arrayiterobject = type { %struct._object, i64, ptr, ptr }

@.str.55 = private unnamed_addr constant [33 x i8] c"../cpython/Modules/arraymodule.c\00", align 1

; Function Attrs: alwaysinline nounwind uwtable
define internal void @Py_INCREF(ptr noundef %0) #4 {
  %2 = alloca ptr, align 8
  %3 = alloca i32, align 4
  %4 = alloca i32, align 4
  store ptr %0, ptr %2, align 8, !tbaa !3
  call void @llvm.lifetime.start.p0(i64 4, ptr %3) #8
  %5 = load ptr, ptr %2, align 8, !tbaa !3
  %6 = getelementptr inbounds nuw %struct._object, ptr %5, i32 0, i32 0
  %7 = getelementptr inbounds nuw %struct.anon, ptr %6, i32 0, i32 0
  %8 = load i32, ptr %7, align 8, !tbaa !36
  store i32 %8, ptr %3, align 4, !tbaa !12
  %9 = load i32, ptr %3, align 4, !tbaa !12
  %10 = icmp slt i32 %9, 0
  br i1 %10, label %11, label %12

11:                                               ; preds = %1
  store i32 1, ptr %4, align 4
  br label %18

12:                                               ; preds = %1
  %13 = load i32, ptr %3, align 4, !tbaa !12
  %14 = add i32 %13, 1
  %15 = load ptr, ptr %2, align 8, !tbaa !3
  %16 = getelementptr inbounds nuw %struct._object, ptr %15, i32 0, i32 0
  %17 = getelementptr inbounds nuw %struct.anon, ptr %16, i32 0, i32 0
  store i32 %14, ptr %17, align 8, !tbaa !36
  store i32 0, ptr %4, align 4
  br label %18

18:                                               ; preds = %12, %11
  call void @llvm.lifetime.end.p0(i64 4, ptr %3) #8
  %19 = load i32, ptr %4, align 4
  switch i32 %19, label %21 [
    i32 0, label %20
    i32 1, label %20
  ]

20:                                               ; preds = %18, %18
  ret void

21:                                               ; preds = %18
  unreachable
}

; Function Attrs: inlinehint nounwind uwtable
define internal i32 @Py_IS_TYPE(ptr noundef %0, ptr noundef %1) #3 {
  %3 = alloca ptr, align 8
  %4 = alloca ptr, align 8
  store ptr %0, ptr %3, align 8, !tbaa !3
  store ptr %1, ptr %4, align 8, !tbaa !18
  %5 = load ptr, ptr %3, align 8, !tbaa !3
  %6 = call ptr @_Py_TYPE(ptr noundef %5)
  %7 = load ptr, ptr %4, align 8, !tbaa !18
  %8 = icmp eq ptr %6, %7
  %9 = zext i1 %8 to i32
  ret i32 %9
}

; Function Attrs: inlinehint nounwind uwtable
define internal ptr @_PyModule_GetState(ptr noundef %0) #3 {
  %2 = alloca ptr, align 8
  store ptr %0, ptr %2, align 8, !tbaa !3
  %3 = load ptr, ptr %2, align 8, !tbaa !3
  %4 = getelementptr inbounds nuw %struct.PyModuleObject, ptr %3, i32 0, i32 3
  %5 = load ptr, ptr %4, align 8, !tbaa !65
  ret ptr %5
}

; Function Attrs: inlinehint nounwind uwtable
define internal ptr @_Py_NewRef(ptr noundef %0) #3 {
  %2 = alloca ptr, align 8
  store ptr %0, ptr %2, align 8, !tbaa !3
  %3 = load ptr, ptr %2, align 8, !tbaa !3
  call void @Py_INCREF(ptr noundef %3)
  %4 = load ptr, ptr %2, align 8, !tbaa !3
  ret ptr %4
}

; Function Attrs: inlinehint nounwind uwtable
define internal i32 @PyObject_TypeCheck(ptr noundef %0, ptr noundef %1) #3 {
  %3 = alloca ptr, align 8
  %4 = alloca ptr, align 8
  store ptr %0, ptr %3, align 8, !tbaa !3
  store ptr %1, ptr %4, align 8, !tbaa !18
  %5 = load ptr, ptr %3, align 8, !tbaa !3
  %6 = load ptr, ptr %4, align 8, !tbaa !18
  %7 = call i32 @Py_IS_TYPE(ptr noundef %5, ptr noundef %6)
  %8 = icmp ne i32 %7, 0
  br i1 %8, label %15, label %9

9:                                                ; preds = %2
  %10 = load ptr, ptr %3, align 8, !tbaa !3
  %11 = call ptr @_Py_TYPE(ptr noundef %10)
  %12 = load ptr, ptr %4, align 8, !tbaa !18
  %13 = call i32 @PyType_IsSubtype(ptr noundef %11, ptr noundef %12)
  %14 = icmp ne i32 %13, 0
  br label %15

15:                                               ; preds = %9, %2
  %16 = phi i1 [ true, %2 ], [ %14, %9 ]
  %17 = zext i1 %16 to i32
  ret i32 %17
}

; Function Attrs: nounwind uwtable
define internal ptr @get_array_state(ptr noundef %0) #0 {
  %2 = alloca ptr, align 8
  store ptr %0, ptr %2, align 8, !tbaa !3
  %3 = load ptr, ptr %2, align 8, !tbaa !3
  %4 = call ptr @_PyModule_GetState(ptr noundef %3)
  ret ptr %4
}

; Function Attrs: inlinehint nounwind uwtable
define internal ptr @_Py_TYPE(ptr noundef %0) #3 {
  %2 = alloca ptr, align 8
  store ptr %0, ptr %2, align 8, !tbaa !3
  %3 = load ptr, ptr %2, align 8, !tbaa !3
  %4 = getelementptr inbounds nuw %struct._object, ptr %3, i32 0, i32 1
  %5 = load ptr, ptr %4, align 8, !tbaa !32
  ret ptr %5
}

; Function Attrs: nounwind uwtable
define internal ptr @array_iter(ptr noundef %0) #0 {
  %2 = alloca ptr, align 8
  %3 = alloca ptr, align 8
  %4 = alloca ptr, align 8
  %5 = alloca ptr, align 8
  %6 = alloca i32, align 4
  store ptr %0, ptr %3, align 8, !tbaa !68
  call void @llvm.lifetime.start.p0(i64 8, ptr %4) #8
  %7 = load ptr, ptr %3, align 8, !tbaa !68
  %8 = call ptr @_Py_TYPE(ptr noundef %7)
  %9 = call ptr @PyType_GetModuleByDef(ptr noundef %8, ptr noundef @arraymodule)
  %10 = call ptr @get_array_state(ptr noundef %9)
  store ptr %10, ptr %4, align 8, !tbaa !8
  call void @llvm.lifetime.start.p0(i64 8, ptr %5) #8
  %11 = load ptr, ptr %3, align 8, !tbaa !68
  %12 = load ptr, ptr %4, align 8, !tbaa !8
  %13 = getelementptr inbounds nuw %struct.array_state, ptr %12, i32 0, i32 0
  %14 = load ptr, ptr %13, align 8, !tbaa !9
  %15 = call i32 @PyObject_TypeCheck(ptr noundef %11, ptr noundef %14)
  %16 = icmp ne i32 %15, 0
  br i1 %16, label %18, label %17

17:                                               ; preds = %1
  call void @_PyErr_BadInternalCall(ptr noundef @.str.55, i32 noundef 2994)
  store ptr null, ptr %2, align 8
  store i32 1, ptr %6, align 4
  br label %42

18:                                               ; preds = %1
  %19 = load ptr, ptr %4, align 8, !tbaa !8
  %20 = getelementptr inbounds nuw %struct.array_state, ptr %19, i32 0, i32 1
  %21 = load ptr, ptr %20, align 8, !tbaa !14
  %22 = call ptr @_PyObject_GC_New(ptr noundef %21)
  store ptr %22, ptr %5, align 8, !tbaa !8
  %23 = load ptr, ptr %5, align 8, !tbaa !8
  %24 = icmp eq ptr %23, null
  br i1 %24, label %25, label %26

25:                                               ; preds = %18
  store ptr null, ptr %2, align 8
  store i32 1, ptr %6, align 4
  br label %42

26:                                               ; preds = %18
  %27 = load ptr, ptr %3, align 8, !tbaa !68
  %28 = call ptr @_Py_NewRef(ptr noundef %27)
  %29 = load ptr, ptr %5, align 8, !tbaa !8
  %30 = getelementptr inbounds nuw %struct.arrayiterobject, ptr %29, i32 0, i32 2
  store ptr %28, ptr %30, align 8, !tbaa !121
  %31 = load ptr, ptr %5, align 8, !tbaa !8
  %32 = getelementptr inbounds nuw %struct.arrayiterobject, ptr %31, i32 0, i32 1
  store i64 0, ptr %32, align 8, !tbaa !123
  %33 = load ptr, ptr %3, align 8, !tbaa !68
  %34 = getelementptr inbounds nuw %struct.arrayobject, ptr %33, i32 0, i32 3
  %35 = load ptr, ptr %34, align 8, !tbaa !99
  %36 = getelementptr inbounds nuw %struct.arraydescr, ptr %35, i32 0, i32 2
  %37 = load ptr, ptr %36, align 8, !tbaa !124
  %38 = load ptr, ptr %5, align 8, !tbaa !8
  %39 = getelementptr inbounds nuw %struct.arrayiterobject, ptr %38, i32 0, i32 3
  store ptr %37, ptr %39, align 8, !tbaa !125
  %40 = load ptr, ptr %5, align 8, !tbaa !8
  call void @PyObject_GC_Track(ptr noundef %40)
  %41 = load ptr, ptr %5, align 8, !tbaa !8
  store ptr %41, ptr %2, align 8
  store i32 1, ptr %6, align 4
  br label %42

42:                                               ; preds = %26, %25, %17
  call void @llvm.lifetime.end.p0(i64 8, ptr %5) #8
  call void @llvm.lifetime.end.p0(i64 8, ptr %4) #8
  %43 = load ptr, ptr %2, align 8
  ret ptr %43
}