; Function Attrs: nounwind uwtable
define internal ptr @array_iter(ptr noundef %0) #0 {
  %2 = getelementptr i8, ptr %0, i64 8
  %.val14 = load ptr, ptr %2, align 8, !tbaa !19
  %3 = tail call ptr @PyType_GetModuleByDef(ptr noundef %.val14, ptr noundef nonnull @arraymodule) #11
  %4 = getelementptr i8, ptr %3, i64 32
  %.val = load ptr, ptr %4, align 8, !tbaa !3
  %5 = load ptr, ptr %.val, align 8, !tbaa !12
  %.val15 = load ptr, ptr %2, align 8, !tbaa !19
  %.not.i = icmp eq ptr %.val15, %5
  br i1 %.not.i, label %PyObject_TypeCheck.exit.thread, label %PyObject_TypeCheck.exit

PyObject_TypeCheck.exit:                          ; preds = %1
  %6 = tail call i32 @PyType_IsSubtype(ptr noundef %.val15, ptr noundef %5) #11
  %.not17 = icmp eq i32 %6, 0
  br i1 %.not17, label %7, label %PyObject_TypeCheck.exit.thread

7:                                                ; preds = %PyObject_TypeCheck.exit
  tail call void @_PyErr_BadInternalCall(ptr noundef nonnull @.str.55, i32 noundef 2994) #11
  br label %24

PyObject_TypeCheck.exit.thread:                   ; preds = %1, %PyObject_TypeCheck.exit
  %8 = getelementptr inbounds nuw i8, ptr %.val, i64 8
  %9 = load ptr, ptr %8, align 8, !tbaa !14
  %10 = tail call ptr @_PyObject_GC_New(ptr noundef %9) #11
  %11 = icmp eq ptr %10, null
  br i1 %11, label %24, label %12

12:                                               ; preds = %PyObject_TypeCheck.exit.thread
  %13 = load i32, ptr %0, align 8, !tbaa !17
  %14 = icmp slt i32 %13, 0
  br i1 %14, label %_Py_NewRef.exit, label %15

15:                                               ; preds = %12
  %16 = add nuw i32 %13, 1
  store i32 %16, ptr %0, align 8, !tbaa !17
  br label %_Py_NewRef.exit

_Py_NewRef.exit:                                  ; preds = %12, %15
  %17 = getelementptr inbounds nuw i8, ptr %10, i64 24
  store ptr %0, ptr %17, align 8, !tbaa !101
  %18 = getelementptr inbounds nuw i8, ptr %10, i64 16
  store i64 0, ptr %18, align 8, !tbaa !104
  %19 = getelementptr inbounds nuw i8, ptr %0, i64 40
  %20 = load ptr, ptr %19, align 8, !tbaa !76
  %21 = getelementptr inbounds nuw i8, ptr %20, i64 8
  %22 = load ptr, ptr %21, align 8, !tbaa !97
  %23 = getelementptr inbounds nuw i8, ptr %10, i64 32
  store ptr %22, ptr %23, align 8, !tbaa !105
  tail call void @PyObject_GC_Track(ptr noundef nonnull %10) #11
  br label %24

24:                                               ; preds = %PyObject_TypeCheck.exit.thread, %_Py_NewRef.exit, %7
  %.0 = phi ptr [ %10, %_Py_NewRef.exit ], [ null, %7 ], [ null, %PyObject_TypeCheck.exit.thread ]
  ret ptr %.0
}